; Function Attrs: nounwind uwtable
define void @Llb_ImgQuantifyReset(ptr noundef readonly captures(none) %0) local_unnamed_addr #0 {
  %2 = getelementptr i8, ptr %0, i64 4
  %.val910 = load i32, ptr %2, align 4, !tbaa !19
  %3 = icmp sgt i32 %.val910, 0
  br i1 %3, label %.lr.ph, label %.critedge

.lr.ph:                                           ; preds = %1
  %4 = getelementptr i8, ptr %0, i64 8
  br label %5

5:                                                ; preds = %.lr.ph, %5
  %indvars.iv = phi i64 [ 0, %.lr.ph ], [ %indvars.iv.next, %5 ]
  %.val = load ptr, ptr %4, align 8, !tbaa !3
  %6 = getelementptr inbounds nuw ptr, ptr %.val, i64 %indvars.iv
  %7 = load ptr, ptr %6, align 8, !tbaa !9
  %8 = getelementptr inbounds nuw i8, ptr %7, i64 736
  %9 = load ptr, ptr %8, align 8, !tbaa !20
  tail call void @Cudd_RecursiveDeref(ptr noundef %7, ptr noundef %9) #13
  %10 = getelementptr inbounds nuw i8, ptr %7, i64 744
  %11 = load ptr, ptr %10, align 8, !tbaa !80
  store ptr %11, ptr %8, align 8, !tbaa !20
  store ptr null, ptr %10, align 8, !tbaa !80
  %indvars.iv.next = add nuw nsw i64 %indvars.iv, 1
  %.val9 = load i32, ptr %2, align 4, !tbaa !19
  %12 = sext i32 %.val9 to i64
  %13 = icmp slt i64 %indvars.iv.next, %12
  br i1 %13, label %5, label %.critedge, !llvm.loop !86

.critedge:                                        ; preds = %5, %1
  ret void
}